target datalayout = "e-m:e-p270:32:32-p271:32:32-p272:64:64-i64:64-i128:128-f80:128-n8:16:32:64-S128"
target triple = "x86_64-pc-linux-gnu"

%struct._zval_struct = type { %union._zend_value, %union.anon, %union.anon.2 }
%union._zend_value = type { i64 }
%union.anon = type { i32 }
%union.anon.2 = type { i32 }
%struct._zend_refcounted_h = type { i32, %union.anon.3 }
%union.anon.3 = type { i32 }
%struct._zend_fcall_info_cache = type { ptr, ptr, ptr, ptr, ptr }
%struct._zend_llist = type { ptr, ptr, i64, i64, ptr, i8, ptr }
%struct._php_sqlite3_db_object = type { i8, i8, ptr, ptr, ptr, %struct._zend_fcall_info_cache, %struct._zend_llist, %struct._zend_object }
%struct._zend_object = type { %struct._zend_refcounted_h, i32, i32, ptr, ptr, ptr, [1 x %struct._zval_struct] }
%struct.__va_list_tag = type { i32, i32, ptr, ptr }

@.str.9 = private unnamed_addr constant [3 x i8] c"%s\00", align 1
@php_sqlite3_exception_ce = internal global ptr null, align 8

; Function Attrs: nounwind uwtable
define internal void @php_sqlite3_error(ptr noundef %0, i32 noundef %1, ptr noundef %2, ...) #0 {
  %4 = alloca ptr, align 8
  %5 = alloca i32, align 4
  %6 = alloca ptr, align 8
  %7 = alloca [1 x %struct.__va_list_tag], align 16
  %8 = alloca ptr, align 8
  store ptr %0, ptr %4, align 8, !tbaa !14
  store i32 %1, ptr %5, align 4, !tbaa !63
  store ptr %2, ptr %6, align 8, !tbaa !62
  call void @llvm.lifetime.start.p0(i64 24, ptr %7) #15
  call void @llvm.lifetime.start.p0(i64 8, ptr %8) #15
  %9 = getelementptr inbounds [1 x %struct.__va_list_tag], ptr %7, i64 0, i64 0
  call void @llvm.va_start.p0(ptr %9)
  %10 = load ptr, ptr %6, align 8, !tbaa !62
  %11 = getelementptr inbounds [1 x %struct.__va_list_tag], ptr %7, i64 0, i64 0
  %12 = call i64 @zend_vspprintf(ptr noundef %8, i64 noundef 0, ptr noundef %10, ptr noundef %11)
  %13 = getelementptr inbounds [1 x %struct.__va_list_tag], ptr %7, i64 0, i64 0
  call void @llvm.va_end.p0(ptr %13)
  %14 = load ptr, ptr %4, align 8, !tbaa !14
  %15 = icmp ne ptr %14, null
  br i1 %15, label %16, label %27

16:                                               ; preds = %3
  %17 = load ptr, ptr %4, align 8, !tbaa !14
  %18 = getelementptr inbounds nuw %struct._php_sqlite3_db_object, ptr %17, i32 0, i32 1
  %19 = load i8, ptr %18, align 1, !tbaa !77, !range !59, !noundef !60
  %20 = trunc i8 %19 to i1
  br i1 %20, label %21, label %27

21:                                               ; preds = %16
  %22 = load ptr, ptr @php_sqlite3_exception_ce, align 8, !tbaa !61
  %23 = load ptr, ptr %8, align 8, !tbaa !62
  %24 = load i32, ptr %5, align 4, !tbaa !63
  %25 = sext i32 %24 to i64
  %26 = call ptr @zend_throw_exception(ptr noundef %22, ptr noundef %23, i64 noundef %25)
  br label %29

27:                                               ; preds = %16, %3
  %28 = load ptr, ptr %8, align 8, !tbaa !62
  call void (ptr, i32, ptr, ...) @php_error_docref(ptr noundef null, i32 noundef 2, ptr noundef @.str.9, ptr noundef %28)
  br label %29

29:                                               ; preds = %27, %21
  %30 = load ptr, ptr %8, align 8, !tbaa !62
  %31 = icmp ne ptr %30, null
  br i1 %31, label %32, label %34

32:                                               ; preds = %29
  %33 = load ptr, ptr %8, align 8, !tbaa !62
  call void @_efree(ptr noundef %33)
  br label %34

34:                                               ; preds = %32, %29
  call void @llvm.lifetime.end.p0(i64 8, ptr %8) #15
  call void @llvm.lifetime.end.p0(i64 24, ptr %7) #15
  ret void
}