; Function Attrs: nounwind uwtable
define internal void @php_sqlite3_error(ptr noundef readonly captures(address_is_null) %0, i32 noundef %1, ptr noundef %2, ...) unnamed_addr #0 {
  %4 = alloca [1 x %struct.__va_list_tag], align 16
  %5 = alloca ptr, align 8
  call void @llvm.lifetime.start.p0(i64 24, ptr nonnull %4) #17
  call void @llvm.lifetime.start.p0(i64 8, ptr nonnull %5) #17
  call void @llvm.va_start.p0(ptr nonnull %4)
  %6 = call i64 @zend_vspprintf(ptr noundef nonnull %5, i64 noundef 0, ptr noundef %2, ptr noundef nonnull %4) #17
  call void @llvm.va_end.p0(ptr nonnull %4)
  %.not = icmp eq ptr %0, null
  br i1 %.not, label %16, label %7

7:                                                ; preds = %3
  %8 = getelementptr inbounds nuw i8, ptr %0, i64 1
  %9 = load i8, ptr %8, align 1, !tbaa !78, !range !55, !noundef !56
  %10 = trunc nuw i8 %9 to i1
  br i1 %10, label %11, label %16

11:                                               ; preds = %7
  %12 = load ptr, ptr @php_sqlite3_exception_ce, align 8, !tbaa !57
  %13 = load ptr, ptr %5, align 8, !tbaa !58
  %14 = sext i32 %1 to i64
  %15 = call ptr @zend_throw_exception(ptr noundef %12, ptr noundef %13, i64 noundef %14) #17
  br label %18

16:                                               ; preds = %7, %3
  %17 = load ptr, ptr %5, align 8, !tbaa !58
  call void (ptr, i32, ptr, ...) @php_error_docref(ptr noundef null, i32 noundef 2, ptr noundef nonnull @.str.9, ptr noundef %17) #17
  br label %18

18:                                               ; preds = %16, %11
  %19 = load ptr, ptr %5, align 8, !tbaa !58
  %.not4 = icmp eq ptr %19, null
  br i1 %.not4, label %21, label %20

20:                                               ; preds = %18
  call void @_efree(ptr noundef nonnull %19) #17
  br label %21

21:                                               ; preds = %20, %18
  call void @llvm.lifetime.end.p0(i64 8, ptr nonnull %5) #17
  call void @llvm.lifetime.end.p0(i64 24, ptr nonnull %4) #17
  ret void
}